target datalayout = "e-m:e-p270:32:32-p271:32:32-p272:64:64-i64:64-i128:128-f80:128-n8:16:32:64-S128"
target triple = "x86_64-pc-linux-gnu"

%class.obj_ref = type { ptr, ptr }
%class.obj_ref.27 = type { ptr, ptr }
%class.obj_ref.26 = type { ptr, ptr }
%class.rewriter_core = type { ptr, ptr, i8, i8, %class.ptr_vector.34, ptr, %class.svector.36, %class.ref_vector, %class.ptr_vector.34, ptr, %class.ref_vector.40, %class.obj_hashtable, ptr, i32, %class.svector.48 }
%class.svector.36 = type { %class.vector.37 }
%class.vector.37 = type { ptr }
%class.ref_vector = type { %class.ref_vector_core }
%class.ref_vector_core = type { %class.ref_manager_wrapper, %class.ptr_vector.38 }
%class.ref_manager_wrapper = type { ptr }
%class.ptr_vector.38 = type { %class.vector.39 }
%class.vector.39 = type { ptr }
%class.ptr_vector.34 = type { %class.vector.35 }
%class.vector.35 = type { ptr }
%class.ref_vector.40 = type { %class.ref_vector_core.41 }
%class.ref_vector_core.41 = type { %class.ref_manager_wrapper.42, %class.ptr_vector.43 }
%class.ref_manager_wrapper.42 = type { ptr }
%class.ptr_vector.43 = type { %class.vector.44 }
%class.vector.44 = type { ptr }
%class.obj_hashtable = type { %class.core_hashtable.base.47, [4 x i8] }
%class.core_hashtable.base.47 = type <{ ptr, i32, i32, i32 }>
%class.svector.48 = type { %class.vector.49 }
%class.vector.49 = type { ptr }
%class.rewriter_tpl = type { %class.rewriter_core, ptr, i32, %class.ptr_vector.38, %class.var_shifter, %class.inv_var_shifter, %class.obj_ref.26, %class.obj_ref.27, %class.obj_ref.27, %class.svector.17 }
%class.var_shifter = type <{ %class.var_shifter_core, i32, i32, i32, [4 x i8] }>
%class.var_shifter_core = type { %class.rewriter_core }
%class.inv_var_shifter = type <{ %class.var_shifter_core, i32, [4 x i8] }>
%class.svector.17 = type { %class.vector.18 }
%class.vector.18 = type { ptr }
%class.ast_manager = type { %class.reslimit, %class.small_object_allocator, %class.family_manager, %class.parray_manager, %class.dependency_manager, %class.parray_manager.10, %class.ptr_vector.13, i32, i8, %class.ast_table, %class.obj_map, %class.id_gen, %class.id_gen, ptr, ptr, ptr, ptr, ptr, i32, i8, [3 x i8], %class.u_map, ptr, i8, i8, ptr, %class.symbol, %class.obj_map.21, ptr }
%class.reslimit = type { %"struct.std::atomic", i8, i64, i64, %class.svector, %class.ptr_vector }
%"struct.std::atomic" = type { %"struct.std::__atomic_base" }
%"struct.std::__atomic_base" = type { i32 }
%class.svector = type { %class.vector }
%class.vector = type { ptr }
%class.ptr_vector = type { %class.vector.0 }
%class.vector.0 = type { ptr }
%class.small_object_allocator = type { [32 x ptr], [32 x ptr], i64 }
%class.family_manager = type { i32, %class.symbol_table, %class.svector.4 }
%class.symbol_table = type { %class.core_hashtable, %class.vector.1, %class.svector.2 }
%class.core_hashtable = type <{ ptr, i32, i32, i32, [4 x i8] }>
%class.vector.1 = type { ptr }
%class.svector.2 = type { %class.vector.3 }
%class.vector.3 = type { ptr }
%class.svector.4 = type { %class.vector.5 }
%class.vector.5 = type { ptr }
%class.parray_manager = type { ptr, ptr, %class.ptr_vector.6, %class.ptr_vector.6 }
%class.ptr_vector.6 = type { %class.vector.7 }
%class.vector.7 = type { ptr }
%class.dependency_manager = type { ptr, ptr, %class.ptr_vector.8 }
%class.ptr_vector.8 = type { %class.vector.9 }
%class.vector.9 = type { ptr }
%class.parray_manager.10 = type { ptr, ptr, %class.ptr_vector.11, %class.ptr_vector.11 }
%class.ptr_vector.11 = type { %class.vector.12 }
%class.vector.12 = type { ptr }
%class.ptr_vector.13 = type { %class.vector.14 }
%class.vector.14 = type { ptr }
%class.ast_table = type { %class.chashtable }
%class.chashtable = type { ptr, i32, i32, i32, i32, i32, i32, i32, ptr, ptr, ptr }
%class.obj_map = type { %class.core_hashtable.15 }
%class.core_hashtable.15 = type <{ ptr, i32, i32, i32, [4 x i8] }>
%class.id_gen = type { i32, %class.svector.17 }
%class.u_map = type { %class.map }
%class.map = type { %class.table2map }
%class.table2map = type { %class.core_hashtable.19 }
%class.core_hashtable.19 = type <{ ptr, i32, i32, i32, [4 x i8] }>
%class.symbol = type { ptr }
%class.obj_map.21 = type { %class.core_hashtable.22 }
%class.core_hashtable.22 = type <{ ptr, i32, i32, i32, [4 x i8] }>
%class.default_expr_replacer = type { %class.expr_replacer, %struct.default_expr_replacer_cfg, %class.rewriter_tpl }
%class.expr_replacer = type { ptr }
%struct.default_expr_replacer_cfg = type { ptr, ptr, %class.obj_ref }

@_ZN12rewriter_tplI25default_expr_replacer_cfgEC1ER11ast_managerbRS0_ = weak_odr hidden unnamed_addr alias void (ptr, ptr, i1, ptr), ptr @_ZN12rewriter_tplI25default_expr_replacer_cfgEC2ER11ast_managerbRS0_

; Function Attrs: mustprogress nounwind uwtable
define linkonce_odr hidden void @_ZN7obj_refIN18dependency_managerIN11ast_manager22expr_dependency_configEE10dependencyES1_EC2ERS1_(ptr noundef nonnull align 8 dereferenceable(16) %0, ptr noundef nonnull align 8 dereferenceable(976) %1) unnamed_addr #6 comdat align 2 {
  %3 = alloca ptr, align 8
  %4 = alloca ptr, align 8
  store ptr %0, ptr %3, align 8, !tbaa !16
  store ptr %1, ptr %4, align 8, !tbaa !18
  %5 = load ptr, ptr %3, align 8
  %6 = getelementptr inbounds nuw %class.obj_ref, ptr %5, i32 0, i32 0
  store ptr null, ptr %6, align 8, !tbaa !20
  %7 = getelementptr inbounds nuw %class.obj_ref, ptr %5, i32 0, i32 1
  %8 = load ptr, ptr %4, align 8, !tbaa !18
  store ptr %8, ptr %7, align 8, !tbaa !18
  ret void
}

; Function Attrs: mustprogress nounwind uwtable
define linkonce_odr hidden void @_ZN13expr_replacerD2Ev(ptr noundef nonnull align 8 dereferenceable(8) %0) unnamed_addr #6 comdat align 2 {
  %2 = alloca ptr, align 8
  store ptr %0, ptr %2, align 8, !tbaa !3
  ret void
}

; Function Attrs: mustprogress nounwind uwtable
define linkonce_odr hidden noundef zeroext i1 @_ZNK11ast_manager14proofs_enabledEv(ptr noundef nonnull align 8 dereferenceable(976) %0) #6 comdat align 2 {
  %2 = alloca ptr, align 8
  store ptr %0, ptr %2, align 8, !tbaa !18
  %3 = load ptr, ptr %2, align 8
  %4 = getelementptr inbounds nuw %class.ast_manager, ptr %3, i32 0, i32 7
  %5 = load i32, ptr %4, align 8, !tbaa !281
  %6 = icmp ne i32 %5, 0
  ret i1 %6
}

; Function Attrs: mustprogress uwtable
define linkonce_odr hidden void @_ZN25default_expr_replacer_cfgC2ER11ast_manager(ptr noundef nonnull align 8 dereferenceable(32) %0, ptr noundef nonnull align 8 dereferenceable(976) %1) unnamed_addr #4 comdat align 2 {
  %3 = alloca ptr, align 8
  %4 = alloca ptr, align 8
  store ptr %0, ptr %3, align 8, !tbaa !104
  store ptr %1, ptr %4, align 8, !tbaa !18
  %5 = load ptr, ptr %3, align 8
  %6 = getelementptr inbounds nuw %struct.default_expr_replacer_cfg, ptr %5, i32 0, i32 0
  %7 = load ptr, ptr %4, align 8, !tbaa !18
  store ptr %7, ptr %6, align 8, !tbaa !18
  %8 = getelementptr inbounds nuw %struct.default_expr_replacer_cfg, ptr %5, i32 0, i32 1
  store ptr null, ptr %8, align 8, !tbaa !279
  %9 = getelementptr inbounds nuw %struct.default_expr_replacer_cfg, ptr %5, i32 0, i32 2
  %10 = load ptr, ptr %4, align 8, !tbaa !18
  call void @_ZN7obj_refIN18dependency_managerIN11ast_manager22expr_dependency_configEE10dependencyES1_EC2ERS1_(ptr noundef nonnull align 8 dereferenceable(16) %9, ptr noundef nonnull align 8 dereferenceable(976) %10)
  ret void
}

; Function Attrs: inlinehint mustprogress nounwind uwtable
define linkonce_odr hidden void @_ZN13expr_replacerC2Ev(ptr noundef nonnull align 8 dereferenceable(8) %0) unnamed_addr #8 comdat align 2 {
  %2 = alloca ptr, align 8
  store ptr %0, ptr %2, align 8, !tbaa !3
  %3 = load ptr, ptr %2, align 8
  store ptr getelementptr inbounds inrange(-16, 56) ({ [9 x ptr] }, ptr @_ZTV13expr_replacer, i32 0, i32 0, i32 2), ptr %3, align 8, !tbaa !14
  ret void
}

; Function Attrs: mustprogress uwtable
define linkonce_odr hidden void @_ZN21default_expr_replacerC2ER11ast_managerb(ptr noundef nonnull align 8 dereferenceable(576) %0, ptr noundef nonnull align 8 dereferenceable(976) %1, i1 noundef zeroext %2) unnamed_addr #4 comdat align 2 personality ptr @__gxx_personality_v0 {
  %4 = alloca ptr, align 8
  %5 = alloca ptr, align 8
  %6 = alloca i8, align 1
  %7 = alloca ptr, align 8
  %8 = alloca i32, align 4
  store ptr %0, ptr %4, align 8, !tbaa !232
  store ptr %1, ptr %5, align 8, !tbaa !18
  %9 = zext i1 %2 to i8
  store i8 %9, ptr %6, align 1, !tbaa !121
  %10 = load ptr, ptr %4, align 8
  call void @_ZN13expr_replacerC2Ev(ptr noundef nonnull align 8 dereferenceable(8) %10) #3
  store ptr getelementptr inbounds inrange(-16, 56) ({ [9 x ptr] }, ptr @_ZTV21default_expr_replacer, i32 0, i32 0, i32 2), ptr %10, align 8, !tbaa !14
  %11 = getelementptr inbounds nuw %class.default_expr_replacer, ptr %10, i32 0, i32 1
  %12 = load ptr, ptr %5, align 8, !tbaa !18
  invoke void @_ZN25default_expr_replacer_cfgC2ER11ast_manager(ptr noundef nonnull align 8 dereferenceable(32) %11, ptr noundef nonnull align 8 dereferenceable(976) %12)
          to label %13 unwind label %26

13:                                               ; preds = %3
  %14 = getelementptr inbounds nuw %class.default_expr_replacer, ptr %10, i32 0, i32 2
  %15 = load ptr, ptr %5, align 8, !tbaa !18
  %16 = load ptr, ptr %5, align 8, !tbaa !18
  %17 = invoke noundef zeroext i1 @_ZNK11ast_manager14proofs_enabledEv(ptr noundef nonnull align 8 dereferenceable(976) %16)
          to label %18 unwind label %30

18:                                               ; preds = %13
  br i1 %17, label %19, label %22

19:                                               ; preds = %18
  %20 = load i8, ptr %6, align 1, !tbaa !121, !range !122, !noundef !123
  %21 = trunc i8 %20 to i1
  br label %22

22:                                               ; preds = %19, %18
  %23 = phi i1 [ false, %18 ], [ %21, %19 ]
  %24 = getelementptr inbounds nuw %class.default_expr_replacer, ptr %10, i32 0, i32 1
  invoke void @_ZN12rewriter_tplI25default_expr_replacer_cfgEC1ER11ast_managerbRS0_(ptr noundef nonnull align 8 dereferenceable(536) %14, ptr noundef nonnull align 8 dereferenceable(976) %15, i1 noundef zeroext %23, ptr noundef nonnull align 8 dereferenceable(32) %24)
          to label %25 unwind label %30

25:                                               ; preds = %22
  ret void

26:                                               ; preds = %3
  %27 = landingpad { ptr, i32 }
          cleanup
  %28 = extractvalue { ptr, i32 } %27, 0
  store ptr %28, ptr %7, align 8
  %29 = extractvalue { ptr, i32 } %27, 1
  store i32 %29, ptr %8, align 4
  br label %34

30:                                               ; preds = %22, %13
  %31 = landingpad { ptr, i32 }
          cleanup
  %32 = extractvalue { ptr, i32 } %31, 0
  store ptr %32, ptr %7, align 8
  %33 = extractvalue { ptr, i32 } %31, 1
  store i32 %33, ptr %8, align 4
  call void @_ZN25default_expr_replacer_cfgD2Ev(ptr noundef nonnull align 8 dereferenceable(32) %11) #3
  br label %34

34:                                               ; preds = %30, %26
  call void @_ZN13expr_replacerD2Ev(ptr noundef nonnull align 8 dereferenceable(8) %10) #3
  br label %35

35:                                               ; preds = %34
  %36 = load ptr, ptr %7, align 8
  %37 = load i32, ptr %8, align 4
  %38 = insertvalue { ptr, i32 } poison, ptr %36, 0
  %39 = insertvalue { ptr, i32 } %38, i32 %37, 1
  resume { ptr, i32 } %39
}

; Function Attrs: mustprogress uwtable
define hidden noundef ptr @_Z24mk_default_expr_replacerR11ast_managerb(ptr noundef nonnull align 8 dereferenceable(976) %0, i1 noundef zeroext %1) #4 {
  %3 = alloca ptr, align 8
  %4 = alloca i8, align 1
  store ptr %0, ptr %3, align 8, !tbaa !18
  %5 = zext i1 %1 to i8
  store i8 %5, ptr %4, align 1, !tbaa !121
  %6 = call noalias noundef ptr @_ZN6memory8allocateEm(i64 noundef 576)
  %7 = load ptr, ptr %3, align 8, !tbaa !18
  %8 = load i8, ptr %4, align 1, !tbaa !121, !range !122, !noundef !123
  %9 = trunc i8 %8 to i1
  call void @_ZN21default_expr_replacerC2ER11ast_managerb(ptr noundef nonnull align 8 dereferenceable(576) %6, ptr noundef nonnull align 8 dereferenceable(976) %7, i1 noundef zeroext %9)
  ret ptr %6
}