; Function Attrs: mustprogress uwtable
define hidden noundef ptr @_Z24mk_default_expr_replacerR11ast_managerb(ptr noundef nonnull align 8 dereferenceable(976) %0, i1 noundef zeroext %1) local_unnamed_addr #3 personality ptr @__gxx_personality_v0 {
  %3 = tail call noalias noundef ptr @_ZN6memory8allocateEm(i64 noundef 576)
  store ptr getelementptr inbounds nuw inrange(-16, 56) (i8, ptr @_ZTV21default_expr_replacer, i64 16), ptr %3, align 8, !tbaa !3
  %4 = getelementptr inbounds nuw i8, ptr %3, i64 8
  store ptr %0, ptr %4, align 8, !tbaa !12
  %5 = getelementptr inbounds nuw i8, ptr %3, i64 16
  %6 = getelementptr inbounds nuw i8, ptr %3, i64 32
  tail call void @llvm.memset.p0.i64(ptr noundef nonnull align 8 dereferenceable(16) %5, i8 0, i64 16, i1 false)
  store ptr %0, ptr %6, align 8, !tbaa !12
  %7 = getelementptr inbounds nuw i8, ptr %3, i64 40
  %8 = getelementptr inbounds nuw i8, ptr %0, i64 712
  %9 = load i32, ptr %8, align 8, !tbaa !185
  %10 = icmp ne i32 %9, 0
  %11 = and i1 %1, %10
  invoke void @_ZN12rewriter_tplI25default_expr_replacer_cfgEC1ER11ast_managerbRS0_(ptr noundef nonnull align 8 dereferenceable(536) %7, ptr noundef nonnull align 8 dereferenceable(976) %0, i1 noundef zeroext %11, ptr noundef nonnull align 8 dereferenceable(32) %4)
          to label %_ZN21default_expr_replacerC2ER11ast_managerb.exit unwind label %12

12:                                               ; preds = %2
  %13 = landingpad { ptr, i32 }
          cleanup
  tail call void @_ZN25default_expr_replacer_cfgD2Ev(ptr noundef nonnull align 8 dereferenceable(32) %4) #18
  resume { ptr, i32 } %13

_ZN21default_expr_replacerC2ER11ast_managerb.exit: ; preds = %2
  ret ptr %3
}